; Function Attrs: nounwind uwtable
define void @Fx_ManStop(ptr noundef captures(none) %0) local_unnamed_addr #0 {
  %2 = getelementptr inbounds nuw i8, ptr %0, i64 16
  %3 = load ptr, ptr %2, align 8, !tbaa !103
  %4 = load i32, ptr %3, align 8, !tbaa !10
  %5 = icmp sgt i32 %4, 0
  %6 = getelementptr inbounds nuw i8, ptr %3, i64 8
  %.pre.i.i = load ptr, ptr %6, align 8, !tbaa !11
  br i1 %5, label %.lr.ph.i.i, label %._crit_edge.i.i

.lr.ph.i.i:                                       ; preds = %1, %14
  %7 = phi i32 [ %15, %14 ], [ %4, %1 ]
  %8 = phi ptr [ %16, %14 ], [ %.pre.i.i, %1 ]
  %indvars.iv.i.i = phi i64 [ %indvars.iv.next.i.i, %14 ], [ 0, %1 ]
  %9 = getelementptr inbounds nuw %struct.Vec_Int_t_, ptr %8, i64 %indvars.iv.i.i, i32 2
  %10 = load ptr, ptr %9, align 8, !tbaa !38
  %.not15.i.i = icmp eq ptr %10, null
  br i1 %.not15.i.i, label %14, label %11

11:                                               ; preds = %.lr.ph.i.i
  tail call void @free(ptr noundef nonnull %10) #28
  %12 = load ptr, ptr %6, align 8, !tbaa !11
  %13 = getelementptr inbounds nuw %struct.Vec_Int_t_, ptr %12, i64 %indvars.iv.i.i, i32 2
  store ptr null, ptr %13, align 8, !tbaa !38
  %.pre18.i.i = load i32, ptr %3, align 8, !tbaa !10
  br label %14

14:                                               ; preds = %11, %.lr.ph.i.i
  %15 = phi i32 [ %.pre18.i.i, %11 ], [ %7, %.lr.ph.i.i ]
  %16 = phi ptr [ %12, %11 ], [ %8, %.lr.ph.i.i ]
  %indvars.iv.next.i.i = add nuw nsw i64 %indvars.iv.i.i, 1
  %17 = sext i32 %15 to i64
  %18 = icmp slt i64 %indvars.iv.next.i.i, %17
  br i1 %18, label %.lr.ph.i.i, label %._crit_edge.thread.i.i, !llvm.loop !63

._crit_edge.i.i:                                  ; preds = %1
  %.not.i.i = icmp eq ptr %.pre.i.i, null
  br i1 %.not.i.i, label %Vec_WecFree.exit, label %._crit_edge.thread.i.i

._crit_edge.thread.i.i:                           ; preds = %14, %._crit_edge.i.i
  %19 = phi ptr [ %.pre.i.i, %._crit_edge.i.i ], [ %16, %14 ]
  tail call void @free(ptr noundef nonnull %19) #28
  br label %Vec_WecFree.exit

Vec_WecFree.exit:                                 ; preds = %._crit_edge.i.i, %._crit_edge.thread.i.i
  tail call void @free(ptr noundef nonnull %3) #28
  %20 = getelementptr inbounds nuw i8, ptr %0, i64 24
  %21 = load ptr, ptr %20, align 8, !tbaa !104
  %22 = getelementptr inbounds nuw i8, ptr %21, i64 8
  %23 = load ptr, ptr %22, align 8, !tbaa !38
  %.not.i = icmp eq ptr %23, null
  br i1 %.not.i, label %Vec_IntFree.exit, label %24

24:                                               ; preds = %Vec_WecFree.exit
  tail call void @free(ptr noundef nonnull %23) #28
  br label %Vec_IntFree.exit

Vec_IntFree.exit:                                 ; preds = %Vec_WecFree.exit, %24
  tail call void @free(ptr noundef nonnull %21) #28
  %25 = getelementptr inbounds nuw i8, ptr %0, i64 32
  %26 = load ptr, ptr %25, align 8, !tbaa !105
  %27 = load ptr, ptr %26, align 8, !tbaa !106
  %28 = getelementptr inbounds nuw i8, ptr %27, i64 8
  %29 = load ptr, ptr %28, align 8, !tbaa !38
  %.not.i.i15 = icmp eq ptr %29, null
  br i1 %.not.i.i15, label %Vec_IntFree.exit.i, label %30

30:                                               ; preds = %Vec_IntFree.exit
  tail call void @free(ptr noundef nonnull %29) #28
  br label %Vec_IntFree.exit.i

Vec_IntFree.exit.i:                               ; preds = %30, %Vec_IntFree.exit
  tail call void @free(ptr noundef nonnull %27) #28
  %31 = getelementptr inbounds nuw i8, ptr %26, i64 8
  %32 = load ptr, ptr %31, align 8, !tbaa !108
  %33 = getelementptr inbounds nuw i8, ptr %32, i64 8
  %34 = load ptr, ptr %33, align 8, !tbaa !38
  %.not.i5.i = icmp eq ptr %34, null
  br i1 %.not.i5.i, label %Vec_IntFree.exit6.i, label %35

35:                                               ; preds = %Vec_IntFree.exit.i
  tail call void @free(ptr noundef nonnull %34) #28
  br label %Vec_IntFree.exit6.i

Vec_IntFree.exit6.i:                              ; preds = %35, %Vec_IntFree.exit.i
  tail call void @free(ptr noundef nonnull %32) #28
  %36 = getelementptr inbounds nuw i8, ptr %26, i64 16
  %37 = load ptr, ptr %36, align 8, !tbaa !109
  %38 = getelementptr inbounds nuw i8, ptr %37, i64 8
  %39 = load ptr, ptr %38, align 8, !tbaa !38
  %.not.i7.i = icmp eq ptr %39, null
  br i1 %.not.i7.i, label %Hsh_VecManStop.exit, label %40

40:                                               ; preds = %Vec_IntFree.exit6.i
  tail call void @free(ptr noundef nonnull %39) #28
  br label %Hsh_VecManStop.exit

Hsh_VecManStop.exit:                              ; preds = %Vec_IntFree.exit6.i, %40
  tail call void @free(ptr noundef nonnull %37) #28
  tail call void @free(ptr noundef nonnull %26) #28
  %41 = getelementptr inbounds nuw i8, ptr %0, i64 40
  %42 = load ptr, ptr %41, align 8, !tbaa !75
  %43 = getelementptr inbounds nuw i8, ptr %42, i64 8
  %44 = load ptr, ptr %43, align 8, !tbaa !110
  %.not.i16 = icmp eq ptr %44, null
  br i1 %.not.i16, label %Vec_FltFree.exit, label %45

45:                                               ; preds = %Hsh_VecManStop.exit
  tail call void @free(ptr noundef nonnull %44) #28
  br label %Vec_FltFree.exit

Vec_FltFree.exit:                                 ; preds = %Hsh_VecManStop.exit, %45
  tail call void @free(ptr noundef nonnull %42) #28
  %46 = getelementptr inbounds nuw i8, ptr %0, i64 48
  %47 = load ptr, ptr %46, align 8, !tbaa !80
  %48 = getelementptr inbounds nuw i8, ptr %47, i64 16
  %49 = load ptr, ptr %48, align 8, !tbaa !88
  %.not.i17 = icmp eq ptr %49, null
  br i1 %.not.i17, label %51, label %50

50:                                               ; preds = %Vec_FltFree.exit
  tail call void @free(ptr noundef nonnull %49) #28
  store ptr null, ptr %48, align 8, !tbaa !88
  br label %51

51:                                               ; preds = %50, %Vec_FltFree.exit
  %52 = getelementptr inbounds nuw i8, ptr %47, i64 8
  %53 = load ptr, ptr %52, align 8, !tbaa !84
  %.not10.i = icmp eq ptr %53, null
  br i1 %.not10.i, label %Vec_QueFree.exit, label %54

54:                                               ; preds = %51
  tail call void @free(ptr noundef nonnull %53) #28
  br label %Vec_QueFree.exit

Vec_QueFree.exit:                                 ; preds = %51, %54
  tail call void @free(ptr noundef nonnull %47) #28
  %55 = getelementptr inbounds nuw i8, ptr %0, i64 56
  %56 = load ptr, ptr %55, align 8, !tbaa !111
  %57 = getelementptr inbounds nuw i8, ptr %56, i64 8
  %58 = load ptr, ptr %57, align 8, !tbaa !38
  %.not.i18 = icmp eq ptr %58, null
  br i1 %.not.i18, label %Vec_IntFree.exit19, label %59

59:                                               ; preds = %Vec_QueFree.exit
  tail call void @free(ptr noundef nonnull %58) #28
  br label %Vec_IntFree.exit19

Vec_IntFree.exit19:                               ; preds = %Vec_QueFree.exit, %59
  tail call void @free(ptr noundef nonnull %56) #28
  %60 = getelementptr inbounds nuw i8, ptr %0, i64 64
  %61 = load ptr, ptr %60, align 8, !tbaa !112
  %62 = getelementptr inbounds nuw i8, ptr %61, i64 8
  %63 = load ptr, ptr %62, align 8, !tbaa !38
  %.not.i20 = icmp eq ptr %63, null
  br i1 %.not.i20, label %Vec_IntFree.exit21, label %64

64:                                               ; preds = %Vec_IntFree.exit19
  tail call void @free(ptr noundef nonnull %63) #28
  br label %Vec_IntFree.exit21

Vec_IntFree.exit21:                               ; preds = %Vec_IntFree.exit19, %64
  tail call void @free(ptr noundef nonnull %61) #28
  %65 = getelementptr inbounds nuw i8, ptr %0, i64 72
  %66 = load ptr, ptr %65, align 8, !tbaa !97
  %67 = getelementptr inbounds nuw i8, ptr %66, i64 8
  %68 = load ptr, ptr %67, align 8, !tbaa !38
  %.not.i22 = icmp eq ptr %68, null
  br i1 %.not.i22, label %Vec_IntFree.exit23, label %69

69:                                               ; preds = %Vec_IntFree.exit21
  tail call void @free(ptr noundef nonnull %68) #28
  br label %Vec_IntFree.exit23

Vec_IntFree.exit23:                               ; preds = %Vec_IntFree.exit21, %69
  tail call void @free(ptr noundef nonnull %66) #28
  %70 = getelementptr inbounds nuw i8, ptr %0, i64 80
  %71 = load ptr, ptr %70, align 8, !tbaa !98
  %72 = getelementptr inbounds nuw i8, ptr %71, i64 8
  %73 = load ptr, ptr %72, align 8, !tbaa !38
  %.not.i24 = icmp eq ptr %73, null
  br i1 %.not.i24, label %Vec_IntFree.exit25, label %74

74:                                               ; preds = %Vec_IntFree.exit23
  tail call void @free(ptr noundef nonnull %73) #28
  br label %Vec_IntFree.exit25

Vec_IntFree.exit25:                               ; preds = %Vec_IntFree.exit23, %74
  tail call void @free(ptr noundef nonnull %71) #28
  %75 = getelementptr inbounds nuw i8, ptr %0, i64 88
  %76 = load ptr, ptr %75, align 8, !tbaa !99
  %77 = getelementptr inbounds nuw i8, ptr %76, i64 8
  %78 = load ptr, ptr %77, align 8, !tbaa !38
  %.not.i26 = icmp eq ptr %78, null
  br i1 %.not.i26, label %Vec_IntFree.exit27, label %79

79:                                               ; preds = %Vec_IntFree.exit25
  tail call void @free(ptr noundef nonnull %78) #28
  br label %Vec_IntFree.exit27

Vec_IntFree.exit27:                               ; preds = %Vec_IntFree.exit25, %79
  tail call void @free(ptr noundef nonnull %76) #28
  %80 = getelementptr inbounds nuw i8, ptr %0, i64 96
  %81 = load ptr, ptr %80, align 8, !tbaa !100
  %82 = getelementptr inbounds nuw i8, ptr %81, i64 8
  %83 = load ptr, ptr %82, align 8, !tbaa !38
  %.not.i28 = icmp eq ptr %83, null
  br i1 %.not.i28, label %Vec_IntFree.exit29, label %84

84:                                               ; preds = %Vec_IntFree.exit27
  tail call void @free(ptr noundef nonnull %83) #28
  br label %Vec_IntFree.exit29

Vec_IntFree.exit29:                               ; preds = %Vec_IntFree.exit27, %84
  tail call void @free(ptr noundef nonnull %81) #28
  %85 = getelementptr inbounds nuw i8, ptr %0, i64 104
  %86 = load ptr, ptr %85, align 8, !tbaa !101
  %87 = getelementptr inbounds nuw i8, ptr %86, i64 8
  %88 = load ptr, ptr %87, align 8, !tbaa !38
  %.not.i30 = icmp eq ptr %88, null
  br i1 %.not.i30, label %Vec_IntFree.exit31, label %89

89:                                               ; preds = %Vec_IntFree.exit29
  tail call void @free(ptr noundef nonnull %88) #28
  br label %Vec_IntFree.exit31

Vec_IntFree.exit31:                               ; preds = %Vec_IntFree.exit29, %89
  tail call void @free(ptr noundef nonnull %86) #28
  %90 = getelementptr inbounds nuw i8, ptr %0, i64 112
  %91 = load ptr, ptr %90, align 8, !tbaa !102
  %92 = getelementptr inbounds nuw i8, ptr %91, i64 8
  %93 = load ptr, ptr %92, align 8, !tbaa !38
  %.not.i32 = icmp eq ptr %93, null
  br i1 %.not.i32, label %95, label %94

94:                                               ; preds = %Vec_IntFree.exit31
  tail call void @free(ptr noundef nonnull %93) #28
  br label %95

95:                                               ; preds = %Vec_IntFree.exit31, %94
  tail call void @free(ptr noundef nonnull %91) #28
  tail call void @free(ptr noundef nonnull %0) #28
  ret void
}